; ModuleID = '12/14.c'
source_filename = "12/14.c"
target datalayout = "e-m:e-p270:32:32-p271:32:32-p272:64:64-i64:64-f80:128-n8:16:32:64-S128"
target triple = "x86_64-pc-linux-gnu"

@.str = private unnamed_addr constant [3 x i8] c"%d\00", align 1

; Function Attrs: noinline nounwind uwtable
define dso_local void @main() #0 {
  %1 = alloca [15 x i32], align 16
  %2 = alloca i32, align 4
  %3 = alloca i32, align 4
  %4 = alloca i32, align 4
  %5 = alloca i32, align 4
  %6 = alloca i32, align 4
  store i32 0, i32* %3, align 4
  store i32 0, i32* %2, align 4
  br label %7

7:                                                ; preds = %22, %0
  %8 = load i32, i32* %2, align 4
  %9 = icmp slt i32 %8, 15
  br i1 %9, label %10, label %25

10:                                               ; preds = %7
  %11 = load i32, i32* %2, align 4
  %12 = sext i32 %11 to i64
  %13 = getelementptr inbounds [15 x i32], [15 x i32]* %1, i64 0, i64 %12
  %14 = call i32 (i8*, ...) @__isoc99_scanf(i8* getelementptr inbounds ([3 x i8], [3 x i8]* @.str, i64 0, i64 0), i32* %13)
  %15 = load i32, i32* %2, align 4
  %16 = sext i32 %15 to i64
  %17 = getelementptr inbounds [15 x i32], [15 x i32]* %1, i64 0, i64 %16
  %18 = load i32, i32* %17, align 4
  %19 = icmp eq i32 %18, 0
  br i1 %19, label %20, label %21

20:                                               ; preds = %10
  br label %25

21:                                               ; preds = %10
  br label %22

22:                                               ; preds = %21
  %23 = load i32, i32* %2, align 4
  %24 = add nsw i32 %23, 1
  store i32 %24, i32* %2, align 4
  br label %7

25:                                               ; preds = %20, %7
  store i32 0, i32* %6, align 4
  store i32 0, i32* %4, align 4
  br label %26

26:                                               ; preds = %58, %25
  %27 = load i32, i32* %4, align 4
  %28 = sext i32 %27 to i64
  %29 = getelementptr inbounds [15 x i32], [15 x i32]* %1, i64 0, i64 %28
  %30 = load i32, i32* %29, align 4
  %31 = icmp ne i32 %30, 0
  br i1 %31, label %32, label %61

32:                                               ; preds = %26
  store i32 0, i32* %5, align 4
  br label %33

33:                                               ; preds = %54, %32
  %34 = load i32, i32* %5, align 4
  %35 = sext i32 %34 to i64
  %36 = getelementptr inbounds [15 x i32], [15 x i32]* %1, i64 0, i64 %35
  %37 = load i32, i32* %36, align 4
  %38 = icmp ne i32 %37, 0
  br i1 %38, label %39, label %57

39:                                               ; preds = %33
  %40 = load i32, i32* %4, align 4
  %41 = sext i32 %40 to i64
  %42 = getelementptr inbounds [15 x i32], [15 x i32]* %1, i64 0, i64 %41
  %43 = load i32, i32* %42, align 4
  %44 = load i32, i32* %5, align 4
  %45 = sext i32 %44 to i64
  %46 = getelementptr inbounds [15 x i32], [15 x i32]* %1, i64 0, i64 %45
  %47 = load i32, i32* %46, align 4
  %48 = mul nsw i32 2, %47
  %49 = icmp eq i32 %43, %48
  br i1 %49, label %50, label %53

50:                                               ; preds = %39
  %51 = load i32, i32* %6, align 4
  %52 = add nsw i32 %51, 1
  store i32 %52, i32* %6, align 4
  br label %53

53:                                               ; preds = %50, %39
  br label %54

54:                                               ; preds = %53
  %55 = load i32, i32* %5, align 4
  %56 = add nsw i32 %55, 1
  store i32 %56, i32* %5, align 4
  br label %33

57:                                               ; preds = %33
  br label %58

58:                                               ; preds = %57
  %59 = load i32, i32* %4, align 4
  %60 = add nsw i32 %59, 1
  store i32 %60, i32* %4, align 4
  br label %26

61:                                               ; preds = %26
  %62 = load i32, i32* %6, align 4
  %63 = call i32 (i8*, ...) @printf(i8* getelementptr inbounds ([3 x i8], [3 x i8]* @.str, i64 0, i64 0), i32 %62)
  ret void
}

declare dso_local i32 @__isoc99_scanf(i8*, ...) #1

declare dso_local i32 @printf(i8*, ...) #1


!llvm.module.flags = !{!0}
!llvm.ident = !{!1}

!0 = !{i32 1, !"wchar_size", i32 4}
!1 = !{!"clang version 10.0.0-4ubuntu1 "}
